; Function Attrs: nounwind uwtable
define internal noundef i32 @mov_read_ispe(ptr noundef readonly captures(none) %0, ptr noundef %1, i32 %2, i64 %3) #0 {
  %5 = tail call i32 @avio_r8(ptr noundef %1) #16
  %6 = tail call i32 @avio_rb24(ptr noundef %1) #16
  %7 = tail call i32 @avio_rb32(ptr noundef %1) #16
  %8 = tail call i32 @avio_rb32(ptr noundef %1) #16
  %9 = getelementptr inbounds nuw i8, ptr %0, i64 8
  %10 = load ptr, ptr %9, align 8, !tbaa !4
  %11 = getelementptr inbounds nuw i8, ptr %0, i64 468
  %12 = load i32, ptr %11, align 4, !tbaa !150
  tail call void (ptr, i32, ptr, ...) @av_log(ptr noundef %10, i32 noundef 56, ptr noundef nonnull @.str.355, i32 noundef %12, i32 noundef %7, i32 noundef %8) #16
  %13 = getelementptr inbounds nuw i8, ptr %0, i64 480
  %14 = load i32, ptr %13, align 8, !tbaa !154
  %15 = icmp sgt i32 %14, 0
  br i1 %15, label %.lr.ph.i, label %heif_cur_item.exit.thread

.lr.ph.i:                                         ; preds = %4
  %16 = getelementptr inbounds nuw i8, ptr %0, i64 472
  %17 = load ptr, ptr %16, align 8, !tbaa !155
  %wide.trip.count.i = zext nneg i32 %14 to i64
  br label %18

18:                                               ; preds = %25, %.lr.ph.i
  %indvars.iv.i = phi i64 [ 0, %.lr.ph.i ], [ %indvars.iv.next.i, %25 ]
  %19 = getelementptr inbounds nuw ptr, ptr %17, i64 %indvars.iv.i
  %20 = load ptr, ptr %19, align 8, !tbaa !156
  %.not.i = icmp eq ptr %20, null
  br i1 %.not.i, label %25, label %21

21:                                               ; preds = %18
  %22 = getelementptr inbounds nuw i8, ptr %20, i64 16
  %23 = load i32, ptr %22, align 8, !tbaa !160
  %24 = load i32, ptr %11, align 4, !tbaa !150
  %.not12.i = icmp eq i32 %23, %24
  br i1 %.not12.i, label %heif_cur_item.exit, label %25

25:                                               ; preds = %21, %18
  %indvars.iv.next.i = add nuw nsw i64 %indvars.iv.i, 1
  %exitcond.not.i = icmp eq i64 %indvars.iv.next.i, %wide.trip.count.i
  br i1 %exitcond.not.i, label %heif_cur_item.exit.thread, label %18, !llvm.loop !389

heif_cur_item.exit:                               ; preds = %21
  %26 = getelementptr inbounds nuw i8, ptr %20, i64 40
  store i32 %7, ptr %26, align 8, !tbaa !163
  %27 = getelementptr inbounds nuw i8, ptr %20, i64 44
  store i32 %8, ptr %27, align 4, !tbaa !164
  br label %heif_cur_item.exit.thread

heif_cur_item.exit.thread:                        ; preds = %25, %4, %heif_cur_item.exit
  ret i32 0
}